target datalayout = "e-m:e-p270:32:32-p271:32:32-p272:64:64-i64:64-i128:128-f80:128-n8:16:32:64-S128"
target triple = "x86_64-pc-linux-gnu"

%"class.YAML::EmitterState" = type { i8, %"class.std::__cxx11::basic_string", %"class.YAML::Setting", %"class.YAML::Setting", %"class.YAML::Setting", %"class.YAML::Setting", %"class.YAML::Setting", %"class.YAML::Setting", %"class.YAML::Setting", %"class.YAML::Setting.0", %"class.YAML::Setting.0", %"class.YAML::Setting.0", %"class.YAML::Setting", %"class.YAML::Setting", %"class.YAML::Setting", %"class.YAML::Setting.0", %"class.YAML::Setting.0", %"class.YAML::SettingChanges", %"class.YAML::SettingChanges", %"class.std::vector.4", i64, i8, i8, i8, i8, i64 }
%"class.std::__cxx11::basic_string" = type { %"struct.std::__cxx11::basic_string<char>::_Alloc_hider", i64, %union.anon }
%"struct.std::__cxx11::basic_string<char>::_Alloc_hider" = type { ptr }
%union.anon = type { i64, [8 x i8] }
%"class.YAML::Setting" = type { i32 }
%"class.YAML::Setting.0" = type { i64 }
%"class.YAML::SettingChanges" = type { %"class.std::vector" }
%"class.std::vector" = type { %"struct.std::_Vector_base" }
%"struct.std::_Vector_base" = type { %"struct.std::_Vector_base<std::unique_ptr<YAML::SettingChangeBase>, std::allocator<std::unique_ptr<YAML::SettingChangeBase>>>::_Vector_impl" }
%"struct.std::_Vector_base<std::unique_ptr<YAML::SettingChangeBase>, std::allocator<std::unique_ptr<YAML::SettingChangeBase>>>::_Vector_impl" = type { %"struct.std::_Vector_base<std::unique_ptr<YAML::SettingChangeBase>, std::allocator<std::unique_ptr<YAML::SettingChangeBase>>>::_Vector_impl_data" }
%"struct.std::_Vector_base<std::unique_ptr<YAML::SettingChangeBase>, std::allocator<std::unique_ptr<YAML::SettingChangeBase>>>::_Vector_impl_data" = type { ptr, ptr, ptr }
%"class.std::vector.4" = type { %"struct.std::_Vector_base.5" }
%"struct.std::_Vector_base.5" = type { %"struct.std::_Vector_base<std::unique_ptr<YAML::EmitterState::Group>, std::allocator<std::unique_ptr<YAML::EmitterState::Group>>>::_Vector_impl" }
%"struct.std::_Vector_base<std::unique_ptr<YAML::EmitterState::Group>, std::allocator<std::unique_ptr<YAML::EmitterState::Group>>>::_Vector_impl" = type { %"struct.std::_Vector_base<std::unique_ptr<YAML::EmitterState::Group>, std::allocator<std::unique_ptr<YAML::EmitterState::Group>>>::_Vector_impl_data" }
%"struct.std::_Vector_base<std::unique_ptr<YAML::EmitterState::Group>, std::allocator<std::unique_ptr<YAML::EmitterState::Group>>>::_Vector_impl_data" = type { ptr, ptr, ptr }

; Function Attrs: mustprogress uwtable
define noundef zeroext i1 @_ZN4YAML12EmitterState15SetMapKeyFormatENS_13EMITTER_MANIPENS_8FmtScope5valueE(ptr noundef nonnull align 8 dereferenceable(224) %0, i32 noundef %1, i32 noundef %2) #0 align 2 {
  %4 = alloca i1, align 1
  %5 = alloca ptr, align 8
  %6 = alloca i32, align 4
  %7 = alloca i32, align 4
  store ptr %0, ptr %5, align 8, !tbaa !3
  store i32 %1, ptr %6, align 4, !tbaa !29
  store i32 %2, ptr %7, align 4, !tbaa !54
  %8 = load ptr, ptr %5, align 8
  %9 = load i32, ptr %6, align 4, !tbaa !29
  switch i32 %9, label %14 [
    i32 0, label %10
    i32 34, label %10
  ]

10:                                               ; preds = %3, %3
  %11 = getelementptr inbounds nuw %"class.YAML::EmitterState", ptr %8, i32 0, i32 14
  %12 = load i32, ptr %6, align 4, !tbaa !29
  %13 = load i32, ptr %7, align 4, !tbaa !54
  call void @_ZN4YAML12EmitterState4_SetINS_13EMITTER_MANIPEEEvRNS_7SettingIT_EES4_NS_8FmtScope5valueE(ptr noundef nonnull align 8 dereferenceable(224) %8, ptr noundef nonnull align 4 dereferenceable(4) %11, i32 noundef %12, i32 noundef %13)
  store i1 true, ptr %4, align 1
  br label %15

14:                                               ; preds = %3
  store i1 false, ptr %4, align 1
  br label %15

15:                                               ; preds = %14, %10
  %16 = load i1, ptr %4, align 1
  ret i1 %16
}

; Function Attrs: mustprogress uwtable
define noundef zeroext i1 @_ZN4YAML12EmitterState11SetFlowTypeENS_9GroupType5valueENS_13EMITTER_MANIPENS_8FmtScope5valueE(ptr noundef nonnull align 8 dereferenceable(224) %0, i32 noundef %1, i32 noundef %2, i32 noundef %3) #0 align 2 {
  %5 = alloca i1, align 1
  %6 = alloca ptr, align 8
  %7 = alloca i32, align 4
  %8 = alloca i32, align 4
  %9 = alloca i32, align 4
  store ptr %0, ptr %6, align 8, !tbaa !3
  store i32 %1, ptr %7, align 4, !tbaa !56
  store i32 %2, ptr %8, align 4, !tbaa !29
  store i32 %3, ptr %9, align 4, !tbaa !54
  %10 = load ptr, ptr %6, align 8
  %11 = load i32, ptr %8, align 4, !tbaa !29
  switch i32 %11, label %23 [
    i32 29, label %12
    i32 28, label %12
  ]

12:                                               ; preds = %4, %4
  %13 = load i32, ptr %7, align 4, !tbaa !56
  %14 = icmp eq i32 %13, 1
  br i1 %14, label %15, label %17

15:                                               ; preds = %12
  %16 = getelementptr inbounds nuw %"class.YAML::EmitterState", ptr %10, i32 0, i32 12
  br label %19

17:                                               ; preds = %12
  %18 = getelementptr inbounds nuw %"class.YAML::EmitterState", ptr %10, i32 0, i32 13
  br label %19

19:                                               ; preds = %17, %15
  %20 = phi ptr [ %16, %15 ], [ %18, %17 ]
  %21 = load i32, ptr %8, align 4, !tbaa !29
  %22 = load i32, ptr %9, align 4, !tbaa !54
  call void @_ZN4YAML12EmitterState4_SetINS_13EMITTER_MANIPEEEvRNS_7SettingIT_EES4_NS_8FmtScope5valueE(ptr noundef nonnull align 8 dereferenceable(224) %10, ptr noundef nonnull align 4 dereferenceable(4) %20, i32 noundef %21, i32 noundef %22)
  store i1 true, ptr %5, align 1
  br label %24

23:                                               ; preds = %4
  store i1 false, ptr %5, align 1
  br label %24

24:                                               ; preds = %23, %19
  %25 = load i1, ptr %5, align 1
  ret i1 %25
}

; Function Attrs: mustprogress uwtable
define noundef zeroext i1 @_ZN4YAML12EmitterState12SetIntFormatENS_13EMITTER_MANIPENS_8FmtScope5valueE(ptr noundef nonnull align 8 dereferenceable(224) %0, i32 noundef %1, i32 noundef %2) #0 align 2 {
  %4 = alloca i1, align 1
  %5 = alloca ptr, align 8
  %6 = alloca i32, align 4
  %7 = alloca i32, align 4
  store ptr %0, ptr %5, align 8, !tbaa !3
  store i32 %1, ptr %6, align 4, !tbaa !29
  store i32 %2, ptr %7, align 4, !tbaa !54
  %8 = load ptr, ptr %5, align 8
  %9 = load i32, ptr %6, align 4, !tbaa !29
  switch i32 %9, label %14 [
    i32 21, label %10
    i32 22, label %10
    i32 23, label %10
  ]

10:                                               ; preds = %3, %3, %3
  %11 = getelementptr inbounds nuw %"class.YAML::EmitterState", ptr %8, i32 0, i32 8
  %12 = load i32, ptr %6, align 4, !tbaa !29
  %13 = load i32, ptr %7, align 4, !tbaa !54
  call void @_ZN4YAML12EmitterState4_SetINS_13EMITTER_MANIPEEEvRNS_7SettingIT_EES4_NS_8FmtScope5valueE(ptr noundef nonnull align 8 dereferenceable(224) %8, ptr noundef nonnull align 4 dereferenceable(4) %11, i32 noundef %12, i32 noundef %13)
  store i1 true, ptr %4, align 1
  br label %15

14:                                               ; preds = %3
  store i1 false, ptr %4, align 1
  br label %15

15:                                               ; preds = %14, %10
  %16 = load i1, ptr %4, align 1
  ret i1 %16
}

; Function Attrs: mustprogress uwtable
define noundef zeroext i1 @_ZN4YAML12EmitterState13SetNullFormatENS_13EMITTER_MANIPENS_8FmtScope5valueE(ptr noundef nonnull align 8 dereferenceable(224) %0, i32 noundef %1, i32 noundef %2) #0 align 2 {
  %4 = alloca i1, align 1
  %5 = alloca ptr, align 8
  %6 = alloca i32, align 4
  %7 = alloca i32, align 4
  store ptr %0, ptr %5, align 8, !tbaa !3
  store i32 %1, ptr %6, align 4, !tbaa !29
  store i32 %2, ptr %7, align 4, !tbaa !54
  %8 = load ptr, ptr %5, align 8
  %9 = load i32, ptr %6, align 4, !tbaa !29
  switch i32 %9, label %14 [
    i32 9, label %10
    i32 10, label %10
    i32 11, label %10
    i32 12, label %10
  ]

10:                                               ; preds = %3, %3, %3, %3
  %11 = getelementptr inbounds nuw %"class.YAML::EmitterState", ptr %8, i32 0, i32 7
  %12 = load i32, ptr %6, align 4, !tbaa !29
  %13 = load i32, ptr %7, align 4, !tbaa !54
  call void @_ZN4YAML12EmitterState4_SetINS_13EMITTER_MANIPEEEvRNS_7SettingIT_EES4_NS_8FmtScope5valueE(ptr noundef nonnull align 8 dereferenceable(224) %8, ptr noundef nonnull align 4 dereferenceable(4) %11, i32 noundef %12, i32 noundef %13)
  store i1 true, ptr %4, align 1
  br label %15

14:                                               ; preds = %3
  store i1 false, ptr %4, align 1
  br label %15

15:                                               ; preds = %14, %10
  %16 = load i1, ptr %4, align 1
  ret i1 %16
}

; Function Attrs: mustprogress uwtable
define noundef zeroext i1 @_ZN4YAML12EmitterState19SetBoolLengthFormatENS_13EMITTER_MANIPENS_8FmtScope5valueE(ptr noundef nonnull align 8 dereferenceable(224) %0, i32 noundef %1, i32 noundef %2) #0 align 2 {
  %4 = alloca i1, align 1
  %5 = alloca ptr, align 8
  %6 = alloca i32, align 4
  %7 = alloca i32, align 4
  store ptr %0, ptr %5, align 8, !tbaa !3
  store i32 %1, ptr %6, align 4, !tbaa !29
  store i32 %2, ptr %7, align 4, !tbaa !54
  %8 = load ptr, ptr %5, align 8
  %9 = load i32, ptr %6, align 4, !tbaa !29
  switch i32 %9, label %14 [
    i32 19, label %10
    i32 20, label %10
  ]

10:                                               ; preds = %3, %3
  %11 = getelementptr inbounds nuw %"class.YAML::EmitterState", ptr %8, i32 0, i32 5
  %12 = load i32, ptr %6, align 4, !tbaa !29
  %13 = load i32, ptr %7, align 4, !tbaa !54
  call void @_ZN4YAML12EmitterState4_SetINS_13EMITTER_MANIPEEEvRNS_7SettingIT_EES4_NS_8FmtScope5valueE(ptr noundef nonnull align 8 dereferenceable(224) %8, ptr noundef nonnull align 4 dereferenceable(4) %11, i32 noundef %12, i32 noundef %13)
  store i1 true, ptr %4, align 1
  br label %15

14:                                               ; preds = %3
  store i1 false, ptr %4, align 1
  br label %15

15:                                               ; preds = %14, %10
  %16 = load i1, ptr %4, align 1
  ret i1 %16
}

; Function Attrs: mustprogress uwtable
define noundef zeroext i1 @_ZN4YAML12EmitterState17SetBoolCaseFormatENS_13EMITTER_MANIPENS_8FmtScope5valueE(ptr noundef nonnull align 8 dereferenceable(224) %0, i32 noundef %1, i32 noundef %2) #0 align 2 {
  %4 = alloca i1, align 1
  %5 = alloca ptr, align 8
  %6 = alloca i32, align 4
  %7 = alloca i32, align 4
  store ptr %0, ptr %5, align 8, !tbaa !3
  store i32 %1, ptr %6, align 4, !tbaa !29
  store i32 %2, ptr %7, align 4, !tbaa !54
  %8 = load ptr, ptr %5, align 8
  %9 = load i32, ptr %6, align 4, !tbaa !29
  switch i32 %9, label %14 [
    i32 16, label %10
    i32 17, label %10
    i32 18, label %10
  ]

10:                                               ; preds = %3, %3, %3
  %11 = getelementptr inbounds nuw %"class.YAML::EmitterState", ptr %8, i32 0, i32 6
  %12 = load i32, ptr %6, align 4, !tbaa !29
  %13 = load i32, ptr %7, align 4, !tbaa !54
  call void @_ZN4YAML12EmitterState4_SetINS_13EMITTER_MANIPEEEvRNS_7SettingIT_EES4_NS_8FmtScope5valueE(ptr noundef nonnull align 8 dereferenceable(224) %8, ptr noundef nonnull align 4 dereferenceable(4) %11, i32 noundef %12, i32 noundef %13)
  store i1 true, ptr %4, align 1
  br label %15

14:                                               ; preds = %3
  store i1 false, ptr %4, align 1
  br label %15

15:                                               ; preds = %14, %10
  %16 = load i1, ptr %4, align 1
  ret i1 %16
}

; Function Attrs: mustprogress uwtable
define noundef zeroext i1 @_ZN4YAML12EmitterState13SetBoolFormatENS_13EMITTER_MANIPENS_8FmtScope5valueE(ptr noundef nonnull align 8 dereferenceable(224) %0, i32 noundef %1, i32 noundef %2) #0 align 2 {
  %4 = alloca i1, align 1
  %5 = alloca ptr, align 8
  %6 = alloca i32, align 4
  %7 = alloca i32, align 4
  store ptr %0, ptr %5, align 8, !tbaa !3
  store i32 %1, ptr %6, align 4, !tbaa !29
  store i32 %2, ptr %7, align 4, !tbaa !54
  %8 = load ptr, ptr %5, align 8
  %9 = load i32, ptr %6, align 4, !tbaa !29
  switch i32 %9, label %14 [
    i32 15, label %10
    i32 14, label %10
    i32 13, label %10
  ]

10:                                               ; preds = %3, %3, %3
  %11 = getelementptr inbounds nuw %"class.YAML::EmitterState", ptr %8, i32 0, i32 4
  %12 = load i32, ptr %6, align 4, !tbaa !29
  %13 = load i32, ptr %7, align 4, !tbaa !54
  call void @_ZN4YAML12EmitterState4_SetINS_13EMITTER_MANIPEEEvRNS_7SettingIT_EES4_NS_8FmtScope5valueE(ptr noundef nonnull align 8 dereferenceable(224) %8, ptr noundef nonnull align 4 dereferenceable(4) %11, i32 noundef %12, i32 noundef %13)
  store i1 true, ptr %4, align 1
  br label %15

14:                                               ; preds = %3
  store i1 false, ptr %4, align 1
  br label %15

15:                                               ; preds = %14, %10
  %16 = load i1, ptr %4, align 1
  ret i1 %16
}

; Function Attrs: mustprogress uwtable
define noundef zeroext i1 @_ZN4YAML12EmitterState15SetStringFormatENS_13EMITTER_MANIPENS_8FmtScope5valueE(ptr noundef nonnull align 8 dereferenceable(224) %0, i32 noundef %1, i32 noundef %2) #0 align 2 {
  %4 = alloca i1, align 1
  %5 = alloca ptr, align 8
  %6 = alloca i32, align 4
  %7 = alloca i32, align 4
  store ptr %0, ptr %5, align 8, !tbaa !3
  store i32 %1, ptr %6, align 4, !tbaa !29
  store i32 %2, ptr %7, align 4, !tbaa !54
  %8 = load ptr, ptr %5, align 8
  %9 = load i32, ptr %6, align 4, !tbaa !29
  switch i32 %9, label %14 [
    i32 0, label %10
    i32 6, label %10
    i32 7, label %10
    i32 8, label %10
  ]

10:                                               ; preds = %3, %3, %3, %3
  %11 = getelementptr inbounds nuw %"class.YAML::EmitterState", ptr %8, i32 0, i32 3
  %12 = load i32, ptr %6, align 4, !tbaa !29
  %13 = load i32, ptr %7, align 4, !tbaa !54
  call void @_ZN4YAML12EmitterState4_SetINS_13EMITTER_MANIPEEEvRNS_7SettingIT_EES4_NS_8FmtScope5valueE(ptr noundef nonnull align 8 dereferenceable(224) %8, ptr noundef nonnull align 4 dereferenceable(4) %11, i32 noundef %12, i32 noundef %13)
  store i1 true, ptr %4, align 1
  br label %15

14:                                               ; preds = %3
  store i1 false, ptr %4, align 1
  br label %15

15:                                               ; preds = %14, %10
  %16 = load i1, ptr %4, align 1
  ret i1 %16
}

; Function Attrs: mustprogress uwtable
define noundef zeroext i1 @_ZN4YAML12EmitterState16SetOutputCharsetENS_13EMITTER_MANIPENS_8FmtScope5valueE(ptr noundef nonnull align 8 dereferenceable(224) %0, i32 noundef %1, i32 noundef %2) #0 align 2 {
  %4 = alloca i1, align 1
  %5 = alloca ptr, align 8
  %6 = alloca i32, align 4
  %7 = alloca i32, align 4
  store ptr %0, ptr %5, align 8, !tbaa !3
  store i32 %1, ptr %6, align 4, !tbaa !29
  store i32 %2, ptr %7, align 4, !tbaa !54
  %8 = load ptr, ptr %5, align 8
  %9 = load i32, ptr %6, align 4, !tbaa !29
  switch i32 %9, label %14 [
    i32 3, label %10
    i32 4, label %10
    i32 5, label %10
  ]

10:                                               ; preds = %3, %3, %3
  %11 = getelementptr inbounds nuw %"class.YAML::EmitterState", ptr %8, i32 0, i32 2
  %12 = load i32, ptr %6, align 4, !tbaa !29
  %13 = load i32, ptr %7, align 4, !tbaa !54
  call void @_ZN4YAML12EmitterState4_SetINS_13EMITTER_MANIPEEEvRNS_7SettingIT_EES4_NS_8FmtScope5valueE(ptr noundef nonnull align 8 dereferenceable(224) %8, ptr noundef nonnull align 4 dereferenceable(4) %11, i32 noundef %12, i32 noundef %13)
  store i1 true, ptr %4, align 1
  br label %15

14:                                               ; preds = %3
  store i1 false, ptr %4, align 1
  br label %15

15:                                               ; preds = %14, %10
  %16 = load i1, ptr %4, align 1
  ret i1 %16
}

; Function Attrs: mustprogress uwtable
define void @_ZN4YAML12EmitterState13SetLocalValueENS_13EMITTER_MANIPE(ptr noundef nonnull align 8 dereferenceable(224) %0, i32 noundef %1) #0 align 2 {
  %3 = alloca ptr, align 8
  %4 = alloca i32, align 4
  store ptr %0, ptr %3, align 8, !tbaa !3
  store i32 %1, ptr %4, align 4, !tbaa !29
  %5 = load ptr, ptr %3, align 8
  %6 = load i32, ptr %4, align 4, !tbaa !29
  %7 = call noundef zeroext i1 @_ZN4YAML12EmitterState16SetOutputCharsetENS_13EMITTER_MANIPENS_8FmtScope5valueE(ptr noundef nonnull align 8 dereferenceable(224) %5, i32 noundef %6, i32 noundef 0)
  %8 = load i32, ptr %4, align 4, !tbaa !29
  %9 = call noundef zeroext i1 @_ZN4YAML12EmitterState15SetStringFormatENS_13EMITTER_MANIPENS_8FmtScope5valueE(ptr noundef nonnull align 8 dereferenceable(224) %5, i32 noundef %8, i32 noundef 0)
  %10 = load i32, ptr %4, align 4, !tbaa !29
  %11 = call noundef zeroext i1 @_ZN4YAML12EmitterState13SetBoolFormatENS_13EMITTER_MANIPENS_8FmtScope5valueE(ptr noundef nonnull align 8 dereferenceable(224) %5, i32 noundef %10, i32 noundef 0)
  %12 = load i32, ptr %4, align 4, !tbaa !29
  %13 = call noundef zeroext i1 @_ZN4YAML12EmitterState17SetBoolCaseFormatENS_13EMITTER_MANIPENS_8FmtScope5valueE(ptr noundef nonnull align 8 dereferenceable(224) %5, i32 noundef %12, i32 noundef 0)
  %14 = load i32, ptr %4, align 4, !tbaa !29
  %15 = call noundef zeroext i1 @_ZN4YAML12EmitterState19SetBoolLengthFormatENS_13EMITTER_MANIPENS_8FmtScope5valueE(ptr noundef nonnull align 8 dereferenceable(224) %5, i32 noundef %14, i32 noundef 0)
  %16 = load i32, ptr %4, align 4, !tbaa !29
  %17 = call noundef zeroext i1 @_ZN4YAML12EmitterState13SetNullFormatENS_13EMITTER_MANIPENS_8FmtScope5valueE(ptr noundef nonnull align 8 dereferenceable(224) %5, i32 noundef %16, i32 noundef 0)
  %18 = load i32, ptr %4, align 4, !tbaa !29
  %19 = call noundef zeroext i1 @_ZN4YAML12EmitterState12SetIntFormatENS_13EMITTER_MANIPENS_8FmtScope5valueE(ptr noundef nonnull align 8 dereferenceable(224) %5, i32 noundef %18, i32 noundef 0)
  %20 = load i32, ptr %4, align 4, !tbaa !29
  %21 = call noundef zeroext i1 @_ZN4YAML12EmitterState11SetFlowTypeENS_9GroupType5valueENS_13EMITTER_MANIPENS_8FmtScope5valueE(ptr noundef nonnull align 8 dereferenceable(224) %5, i32 noundef 1, i32 noundef %20, i32 noundef 0)
  %22 = load i32, ptr %4, align 4, !tbaa !29
  %23 = call noundef zeroext i1 @_ZN4YAML12EmitterState11SetFlowTypeENS_9GroupType5valueENS_13EMITTER_MANIPENS_8FmtScope5valueE(ptr noundef nonnull align 8 dereferenceable(224) %5, i32 noundef 2, i32 noundef %22, i32 noundef 0)
  %24 = load i32, ptr %4, align 4, !tbaa !29
  %25 = call noundef zeroext i1 @_ZN4YAML12EmitterState15SetMapKeyFormatENS_13EMITTER_MANIPENS_8FmtScope5valueE(ptr noundef nonnull align 8 dereferenceable(224) %5, i32 noundef %24, i32 noundef 0)
  ret void
}