; Function Attrs: mustprogress uwtable
define void @_ZN4YAML12EmitterState13SetLocalValueENS_13EMITTER_MANIPE(ptr noundef nonnull align 8 dereferenceable(224) %0, i32 noundef %1) local_unnamed_addr #4 align 2 {
  %.off.i = add i32 %1, -3
  %switch.i = icmp ult i32 %.off.i, 3
  br i1 %switch.i, label %3, label %_ZN4YAML12EmitterState16SetOutputCharsetENS_13EMITTER_MANIPENS_8FmtScope5valueE.exit

3:                                                ; preds = %2
  %4 = getelementptr inbounds nuw i8, ptr %0, i64 40
  tail call void @_ZN4YAML12EmitterState4_SetINS_13EMITTER_MANIPEEEvRNS_7SettingIT_EES4_NS_8FmtScope5valueE(ptr noundef nonnull align 8 dereferenceable(224) %0, ptr noundef nonnull align 4 dereferenceable(4) %4, i32 noundef %1, i32 noundef 0)
  br label %_ZN4YAML12EmitterState16SetOutputCharsetENS_13EMITTER_MANIPENS_8FmtScope5valueE.exit

_ZN4YAML12EmitterState16SetOutputCharsetENS_13EMITTER_MANIPENS_8FmtScope5valueE.exit: ; preds = %2, %3
  %5 = icmp ult i32 %1, 9
  br i1 %5, label %switch.hole_check, label %_ZN4YAML12EmitterState15SetStringFormatENS_13EMITTER_MANIPENS_8FmtScope5valueE.exit

_ZN4YAML12EmitterState15SetStringFormatENS_13EMITTER_MANIPENS_8FmtScope5valueE.exit: ; preds = %switch.hole_check, %_ZN4YAML12EmitterState16SetOutputCharsetENS_13EMITTER_MANIPENS_8FmtScope5valueE.exit
  %.off.i10 = add i32 %1, -13
  %switch.i11 = icmp ult i32 %.off.i10, 3
  br i1 %switch.i11, label %_ZN4YAML12EmitterState12SetIntFormatENS_13EMITTER_MANIPENS_8FmtScope5valueE.exit.sink.split, label %_ZN4YAML12EmitterState13SetBoolFormatENS_13EMITTER_MANIPENS_8FmtScope5valueE.exit

_ZN4YAML12EmitterState13SetBoolFormatENS_13EMITTER_MANIPENS_8FmtScope5valueE.exit: ; preds = %_ZN4YAML12EmitterState15SetStringFormatENS_13EMITTER_MANIPENS_8FmtScope5valueE.exit
  %.off.i12 = add i32 %1, -16
  %switch.i13 = icmp ult i32 %.off.i12, 3
  br i1 %switch.i13, label %_ZN4YAML12EmitterState12SetIntFormatENS_13EMITTER_MANIPENS_8FmtScope5valueE.exit.sink.split, label %_ZN4YAML12EmitterState17SetBoolCaseFormatENS_13EMITTER_MANIPENS_8FmtScope5valueE.exit

_ZN4YAML12EmitterState17SetBoolCaseFormatENS_13EMITTER_MANIPENS_8FmtScope5valueE.exit: ; preds = %_ZN4YAML12EmitterState13SetBoolFormatENS_13EMITTER_MANIPENS_8FmtScope5valueE.exit
  %.off.i14 = add i32 %1, -19
  %switch.i15 = icmp ult i32 %.off.i14, 2
  br i1 %switch.i15, label %_ZN4YAML12EmitterState12SetIntFormatENS_13EMITTER_MANIPENS_8FmtScope5valueE.exit.sink.split, label %_ZN4YAML12EmitterState19SetBoolLengthFormatENS_13EMITTER_MANIPENS_8FmtScope5valueE.exit

_ZN4YAML12EmitterState19SetBoolLengthFormatENS_13EMITTER_MANIPENS_8FmtScope5valueE.exit: ; preds = %_ZN4YAML12EmitterState17SetBoolCaseFormatENS_13EMITTER_MANIPENS_8FmtScope5valueE.exit
  %.off.i16 = add i32 %1, -9
  %switch.i17 = icmp ult i32 %.off.i16, 4
  br i1 %switch.i17, label %_ZN4YAML12EmitterState12SetIntFormatENS_13EMITTER_MANIPENS_8FmtScope5valueE.exit.sink.split, label %_ZN4YAML12EmitterState13SetNullFormatENS_13EMITTER_MANIPENS_8FmtScope5valueE.exit

_ZN4YAML12EmitterState13SetNullFormatENS_13EMITTER_MANIPENS_8FmtScope5valueE.exit: ; preds = %_ZN4YAML12EmitterState19SetBoolLengthFormatENS_13EMITTER_MANIPENS_8FmtScope5valueE.exit
  %.off.i18 = add i32 %1, -21
  %switch.i19 = icmp ult i32 %.off.i18, 3
  br i1 %switch.i19, label %_ZN4YAML12EmitterState12SetIntFormatENS_13EMITTER_MANIPENS_8FmtScope5valueE.exit.sink.split, label %_ZN4YAML12EmitterState12SetIntFormatENS_13EMITTER_MANIPENS_8FmtScope5valueE.exit

switch.hole_check:                                ; preds = %_ZN4YAML12EmitterState16SetOutputCharsetENS_13EMITTER_MANIPENS_8FmtScope5valueE.exit
  %switch.maskindex = trunc nuw i32 %1 to i16
  %switch.shifted = lshr i16 449, %switch.maskindex
  %switch.lobit = trunc i16 %switch.shifted to i1
  br i1 %switch.lobit, label %_ZN4YAML12EmitterState12SetIntFormatENS_13EMITTER_MANIPENS_8FmtScope5valueE.exit.sink.split, label %_ZN4YAML12EmitterState15SetStringFormatENS_13EMITTER_MANIPENS_8FmtScope5valueE.exit

_ZN4YAML12EmitterState12SetIntFormatENS_13EMITTER_MANIPENS_8FmtScope5valueE.exit.sink.split: ; preds = %switch.hole_check, %_ZN4YAML12EmitterState13SetNullFormatENS_13EMITTER_MANIPENS_8FmtScope5valueE.exit, %_ZN4YAML12EmitterState19SetBoolLengthFormatENS_13EMITTER_MANIPENS_8FmtScope5valueE.exit, %_ZN4YAML12EmitterState17SetBoolCaseFormatENS_13EMITTER_MANIPENS_8FmtScope5valueE.exit, %_ZN4YAML12EmitterState13SetBoolFormatENS_13EMITTER_MANIPENS_8FmtScope5valueE.exit, %_ZN4YAML12EmitterState15SetStringFormatENS_13EMITTER_MANIPENS_8FmtScope5valueE.exit
  %.sink40 = phi i64 [ 48, %_ZN4YAML12EmitterState15SetStringFormatENS_13EMITTER_MANIPENS_8FmtScope5valueE.exit ], [ 56, %_ZN4YAML12EmitterState13SetBoolFormatENS_13EMITTER_MANIPENS_8FmtScope5valueE.exit ], [ 52, %_ZN4YAML12EmitterState17SetBoolCaseFormatENS_13EMITTER_MANIPENS_8FmtScope5valueE.exit ], [ 60, %_ZN4YAML12EmitterState19SetBoolLengthFormatENS_13EMITTER_MANIPENS_8FmtScope5valueE.exit ], [ 64, %_ZN4YAML12EmitterState13SetNullFormatENS_13EMITTER_MANIPENS_8FmtScope5valueE.exit ], [ 44, %switch.hole_check ]
  %6 = getelementptr inbounds nuw i8, ptr %0, i64 %.sink40
  tail call void @_ZN4YAML12EmitterState4_SetINS_13EMITTER_MANIPEEEvRNS_7SettingIT_EES4_NS_8FmtScope5valueE(ptr noundef nonnull align 8 dereferenceable(224) %0, ptr noundef nonnull align 4 dereferenceable(4) %6, i32 noundef %1, i32 noundef 0)
  br label %_ZN4YAML12EmitterState12SetIntFormatENS_13EMITTER_MANIPENS_8FmtScope5valueE.exit

_ZN4YAML12EmitterState12SetIntFormatENS_13EMITTER_MANIPENS_8FmtScope5valueE.exit: ; preds = %_ZN4YAML12EmitterState12SetIntFormatENS_13EMITTER_MANIPENS_8FmtScope5valueE.exit.sink.split, %_ZN4YAML12EmitterState13SetNullFormatENS_13EMITTER_MANIPENS_8FmtScope5valueE.exit
  %7 = and i32 %1, -2
  %switch.i20 = icmp eq i32 %7, 28
  br i1 %switch.i20, label %8, label %_ZN4YAML12EmitterState11SetFlowTypeENS_9GroupType5valueENS_13EMITTER_MANIPENS_8FmtScope5valueE.exit22

8:                                                ; preds = %_ZN4YAML12EmitterState12SetIntFormatENS_13EMITTER_MANIPENS_8FmtScope5valueE.exit
  %9 = getelementptr inbounds nuw i8, ptr %0, i64 96
  tail call void @_ZN4YAML12EmitterState4_SetINS_13EMITTER_MANIPEEEvRNS_7SettingIT_EES4_NS_8FmtScope5valueE(ptr noundef nonnull align 8 dereferenceable(224) %0, ptr noundef nonnull align 4 dereferenceable(4) %9, i32 noundef %1, i32 noundef 0)
  %10 = getelementptr inbounds nuw i8, ptr %0, i64 100
  tail call void @_ZN4YAML12EmitterState4_SetINS_13EMITTER_MANIPEEEvRNS_7SettingIT_EES4_NS_8FmtScope5valueE(ptr noundef nonnull align 8 dereferenceable(224) %0, ptr noundef nonnull align 4 dereferenceable(4) %10, i32 noundef %1, i32 noundef 0)
  br label %_ZN4YAML12EmitterState11SetFlowTypeENS_9GroupType5valueENS_13EMITTER_MANIPENS_8FmtScope5valueE.exit22

_ZN4YAML12EmitterState11SetFlowTypeENS_9GroupType5valueENS_13EMITTER_MANIPENS_8FmtScope5valueE.exit22: ; preds = %_ZN4YAML12EmitterState12SetIntFormatENS_13EMITTER_MANIPENS_8FmtScope5valueE.exit, %8
  switch i32 %1, label %_ZN4YAML12EmitterState15SetMapKeyFormatENS_13EMITTER_MANIPENS_8FmtScope5valueE.exit [
    i32 0, label %11
    i32 34, label %11
  ]

11:                                               ; preds = %_ZN4YAML12EmitterState11SetFlowTypeENS_9GroupType5valueENS_13EMITTER_MANIPENS_8FmtScope5valueE.exit22, %_ZN4YAML12EmitterState11SetFlowTypeENS_9GroupType5valueENS_13EMITTER_MANIPENS_8FmtScope5valueE.exit22
  %12 = getelementptr inbounds nuw i8, ptr %0, i64 104
  tail call void @_ZN4YAML12EmitterState4_SetINS_13EMITTER_MANIPEEEvRNS_7SettingIT_EES4_NS_8FmtScope5valueE(ptr noundef nonnull align 8 dereferenceable(224) %0, ptr noundef nonnull align 4 dereferenceable(4) %12, i32 noundef %1, i32 noundef 0)
  br label %_ZN4YAML12EmitterState15SetMapKeyFormatENS_13EMITTER_MANIPENS_8FmtScope5valueE.exit

_ZN4YAML12EmitterState15SetMapKeyFormatENS_13EMITTER_MANIPENS_8FmtScope5valueE.exit: ; preds = %_ZN4YAML12EmitterState11SetFlowTypeENS_9GroupType5valueENS_13EMITTER_MANIPENS_8FmtScope5valueE.exit22, %11
  ret void
}